; Function Attrs: mustprogress uwtable
define void @_ZN6casadi10FastNewtonC2ERKNSt7__cxx1112basic_stringIcSt11char_traitsIcESaIcEEERKNS_8FunctionE(ptr noundef nonnull align 8 dereferenceable(1688) %0, ptr noundef nonnull align 8 dereferenceable(32) %1, ptr noundef nonnull align 8 dereferenceable(8) %2) unnamed_addr #3 align 2 personality ptr @__gxx_personality_v0 {
  tail call void @_ZN6casadi10RootfinderC2ERKNSt7__cxx1112basic_stringIcSt11char_traitsIcESaIcEEERKNS_8FunctionE(ptr noundef nonnull align 8 dereferenceable(1592) %0, ptr noundef nonnull align 8 dereferenceable(32) %1, ptr noundef nonnull align 8 dereferenceable(8) %2)
  store ptr getelementptr inbounds ({ [117 x ptr], [3 x ptr] }, ptr @_ZTVN6casadi10FastNewtonE, i64 0, i32 0, i64 2), ptr %0, align 8
  %4 = getelementptr inbounds i8, ptr %0, i64 1520
  store ptr getelementptr inbounds ({ [117 x ptr], [3 x ptr] }, ptr @_ZTVN6casadi10FastNewtonE, i64 0, i32 1, i64 2), ptr %4, align 8
  %5 = getelementptr inbounds i8, ptr %0, i64 1616
  invoke void @_ZN6casadi8FunctionC1Ev(ptr noundef nonnull align 8 dereferenceable(8) %5)
          to label %6 unwind label %12

6:                                                ; preds = %3
  %7 = getelementptr inbounds i8, ptr %0, i64 1624
  invoke void @_ZN6casadi8SparsityC1Ex(ptr noundef nonnull align 8 dereferenceable(8) %7, i64 noundef 0)
          to label %8 unwind label %14

8:                                                ; preds = %6
  %9 = getelementptr inbounds i8, ptr %0, i64 1632
  invoke void @_ZN6casadi8SparsityC1Ex(ptr noundef nonnull align 8 dereferenceable(8) %9, i64 noundef 0)
          to label %10 unwind label %16

10:                                               ; preds = %8
  %11 = getelementptr inbounds i8, ptr %0, i64 1640
  tail call void @llvm.memset.p0.i64(ptr noundef nonnull align 8 dereferenceable(48) %11, i8 0, i64 48, i1 false)
  ret void

12:                                               ; preds = %3
  %13 = landingpad { ptr, i32 }
          cleanup
  br label %19

14:                                               ; preds = %6
  %15 = landingpad { ptr, i32 }
          cleanup
  br label %18

16:                                               ; preds = %8
  %17 = landingpad { ptr, i32 }
          cleanup
  tail call void @_ZN6casadi12SharedObjectD2Ev(ptr noundef nonnull align 8 dereferenceable(8) %7) #21
  br label %18

18:                                               ; preds = %16, %14
  %.pn = phi { ptr, i32 } [ %17, %16 ], [ %15, %14 ]
  tail call void @_ZN6casadi8FunctionD1Ev(ptr noundef nonnull align 8 dereferenceable(8) %5) #21
  br label %19

19:                                               ; preds = %18, %12
  %.pn.pn = phi { ptr, i32 } [ %.pn, %18 ], [ %13, %12 ]
  tail call void @_ZN6casadi10RootfinderD2Ev(ptr noundef nonnull align 8 dereferenceable(1592) %0) #21
  resume { ptr, i32 } %.pn.pn
}